; Function Attrs: nounwind uwtable
define hidden range(i32 -1, 1) i32 @PLATFORM_hid_get_serial_number_string(ptr noundef captures(none) %0, ptr noundef %1, i64 noundef %2) #1 {
  %4 = icmp ne ptr %1, null
  %5 = icmp ne i64 %2, 0
  %or.cond = and i1 %4, %5
  br i1 %or.cond, label %9, label %6

6:                                                ; preds = %3
  %7 = getelementptr i8, ptr %0, i64 16
  %.val = load ptr, ptr %7, align 8
  tail call void @free(ptr noundef %.val) #22
  %8 = tail call zeroext i1 (ptr, ...) @SDL_SetError_REAL(ptr noundef nonnull @.str.31, ptr noundef nonnull @.str.14) #22
  br label %19

9:                                                ; preds = %3
  %10 = tail call ptr @PLATFORM_hid_get_device_info(ptr noundef %0)
  %.not = icmp eq ptr %10, null
  br i1 %.not, label %19, label %11

11:                                               ; preds = %9
  %12 = getelementptr inbounds nuw i8, ptr %10, i64 16
  %13 = load ptr, ptr %12, align 8
  %.not17 = icmp eq ptr %13, null
  br i1 %.not17, label %18, label %14

14:                                               ; preds = %11
  %15 = tail call ptr @wcsncpy(ptr noundef nonnull %1, ptr noundef nonnull %13, i64 noundef %2) #22
  %16 = getelementptr i32, ptr %1, i64 %2
  %17 = getelementptr i8, ptr %16, i64 -4
  store i32 0, ptr %17, align 4
  br label %19

18:                                               ; preds = %11
  store i32 0, ptr %1, align 4
  br label %19

19:                                               ; preds = %9, %18, %14, %6
  %.0 = phi i32 [ -1, %6 ], [ -1, %9 ], [ 0, %18 ], [ 0, %14 ]
  ret i32 %.0
}